; Function Attrs: mustprogress nofree norecurse nosync nounwind willreturn memory(write, argmem: none, inaccessiblemem: none) uwtable
define internal noundef i32 @custom_ext_2_cli_parse_cb(ptr readnone captures(none) %0, i32 noundef %1, ptr readnone captures(none) %2, i64 noundef %3, ptr readnone captures(none) %4, ptr readnone captures(none) %5) #11 {
  %.not = icmp ne i32 %1, 1002
  %.not2 = icmp ne i64 %3, 0
  %7 = or i1 %.not, %.not2
  br i1 %7, label %8, label %9

8:                                                ; preds = %6
  store i1 true, ptr @custom_ext_error, align 4
  br label %9

9:                                                ; preds = %6, %8
  ret i32 1
}